target datalayout = "e-m:e-p270:32:32-p271:32:32-p272:64:64-i64:64-i128:128-f80:128-n8:16:32:64-S128"
target triple = "x86_64-pc-linux-gnu"

%struct.ReplicationSlot = type { i8, i8, i32, i8, i8, i32, i32, %struct.ReplicationSlotPersistentData, %struct.LWLock, %struct.ConditionVariable, i32, i64, i64, i64, i64, i64 }
%struct.ReplicationSlotPersistentData = type { %struct.nameData, i32, i32, i32, i32, i64, i32, i64, i64, i8, %struct.nameData, i8, i8 }
%struct.nameData = type { [64 x i8] }
%struct.LWLock = type { i16, %struct.pg_atomic_uint32, %struct.proclist_head }
%struct.pg_atomic_uint32 = type { i32 }
%struct.proclist_head = type { i32, i32 }
%struct.ConditionVariable = type { i8, %struct.proclist_head }

@MyReplicationSlot = dso_local global ptr null, align 8
@.str.6 = private unnamed_addr constant [7 x i8] c"slot.c\00", align 1
@.str.23 = private unnamed_addr constant [34 x i8] c"cannot drop replication slot \22%s\22\00", align 1
@.str.24 = private unnamed_addr constant [69 x i8] c"This replication slot is being synchronized from the primary server.\00", align 1
@__func__.ReplicationSlotDrop = private unnamed_addr constant [20 x i8] c"ReplicationSlotDrop\00", align 1

; Function Attrs: nounwind uwtable
define dso_local void @ReplicationSlotDropAcquired() #0 {
  %1 = alloca ptr, align 8
  call void @llvm.lifetime.start.p0(i64 8, ptr %1) #12
  %2 = load ptr, ptr @MyReplicationSlot, align 8
  store ptr %2, ptr %1, align 8
  store ptr null, ptr @MyReplicationSlot, align 8
  %3 = load ptr, ptr %1, align 8
  call void @ReplicationSlotDropPtr(ptr noundef %3)
  call void @llvm.lifetime.end.p0(i64 8, ptr %1) #12
  ret void
}

; Function Attrs: nounwind uwtable
define dso_local void @ReplicationSlotDrop(ptr noundef %0, i1 noundef zeroext %1) #0 {
  %3 = alloca ptr, align 8
  %4 = alloca i8, align 1
  store ptr %0, ptr %3, align 8
  %5 = zext i1 %1 to i8
  store i8 %5, ptr %4, align 1
  %6 = load ptr, ptr %3, align 8
  %7 = load i8, ptr %4, align 1, !range !4, !noundef !5
  %8 = trunc i8 %7 to i1
  call void @ReplicationSlotAcquire(ptr noundef %6, i1 noundef zeroext %8, i1 noundef zeroext false)
  %9 = call zeroext i1 @RecoveryInProgress()
  br i1 %9, label %10, label %30

10:                                               ; preds = %2
  %11 = load ptr, ptr @MyReplicationSlot, align 8
  %12 = getelementptr inbounds nuw %struct.ReplicationSlot, ptr %11, i32 0, i32 7
  %13 = getelementptr inbounds nuw %struct.ReplicationSlotPersistentData, ptr %12, i32 0, i32 11
  %14 = load i8, ptr %13, align 1
  %15 = sext i8 %14 to i32
  %16 = icmp ne i32 %15, 0
  br i1 %16, label %17, label %30

17:                                               ; preds = %10
  br label %18

18:                                               ; preds = %17
  br i1 true, label %19, label %21

19:                                               ; preds = %18
  %20 = call zeroext i1 @errstart_cold(i32 noundef 21, ptr noundef null) #14
  br i1 %20, label %23, label %28

21:                                               ; preds = %18
  %22 = call zeroext i1 @errstart(i32 noundef 21, ptr noundef null)
  br i1 %22, label %23, label %28

23:                                               ; preds = %21, %19
  %24 = call i32 @errcode(i32 noundef 325)
  %25 = load ptr, ptr %3, align 8
  %26 = call i32 (ptr, ...) @errmsg(ptr noundef @.str.23, ptr noundef %25)
  %27 = call i32 (ptr, ...) @errdetail(ptr noundef @.str.24)
  call void @errfinish(ptr noundef @.str.6, i32 noundef 809, ptr noundef @__func__.ReplicationSlotDrop)
  br label %28

28:                                               ; preds = %23, %21, %19
  unreachable

29:                                               ; No predecessors!
  br label %30

30:                                               ; preds = %29, %10, %2
  call void @ReplicationSlotDropAcquired()
  ret void
}