; Function Attrs: nounwind uwtable
define dso_local void @ReplicationSlotDrop(ptr noundef %0, i1 noundef zeroext %1) local_unnamed_addr #0 {
  tail call void @ReplicationSlotAcquire(ptr noundef %0, i1 noundef zeroext %1, i1 noundef zeroext false)
  %3 = tail call zeroext i1 @RecoveryInProgress() #17
  %.pre = load ptr, ptr @MyReplicationSlot, align 8
  br i1 %3, label %4, label %12

4:                                                ; preds = %2
  %5 = getelementptr inbounds nuw i8, ptr %.pre, i64 201
  %6 = load i8, ptr %5, align 1
  %.not = icmp eq i8 %6, 0
  br i1 %.not, label %12, label %7

7:                                                ; preds = %4
  %8 = tail call zeroext i1 @errstart_cold(i32 noundef 21, ptr noundef null) #19
  tail call void @llvm.assume(i1 %8)
  %9 = tail call i32 @errcode(i32 noundef 325) #17
  %10 = tail call i32 (ptr, ...) @errmsg(ptr noundef nonnull @.str.23, ptr noundef %0) #17
  %11 = tail call i32 (ptr, ...) @errdetail(ptr noundef nonnull @.str.24) #17
  tail call void @errfinish(ptr noundef nonnull @.str.6, i32 noundef 809, ptr noundef nonnull @__func__.ReplicationSlotDrop) #17
  unreachable

12:                                               ; preds = %4, %2
  store ptr null, ptr @MyReplicationSlot, align 8
  tail call fastcc void @ReplicationSlotDropPtr(ptr noundef %.pre)
  ret void
}